Certificate:
    Data:
        Version: 3 (0x2)
        Serial Number: 268435457 (0x10000001)
        Signature Algorithm: sha256WithRSAEncryption
        Issuer: C=CN, ST=Hubei, O=yijiupi, OU=Huashan, CN=xiaozhi
        Validity
            Not Before: Dec  5 07:41:38 2019 GMT
            Not After : Dec  4 07:41:38 2020 GMT
        Subject: C=CN, ST=Hubei, O=yijiupi, OU=Huashan, CN=xiaozhi
        Subject Public Key Info:
            Public Key Algorithm: rsaEncryption
                RSA Public-Key: (2048 bit)
                Modulus:
                    00:c8:5e:18:4a:e5:5b:db:d5:c9:e0:54:cf:8a:27:
                    d8:cc:e9:39:3c:ec:6a:79:62:d2:cd:86:89:bd:42:
                    9b:de:c7:96:0b:b8:d6:3e:cf:f7:71:d1:5e:e1:8e:
                    ea:3e:f9:c2:ad:dc:4b:4d:0e:84:9a:ee:08:ca:75:
                    ed:df:4f:33:75:16:bc:8d:46:ed:dd:f9:68:e4:f4:
                    95:9e:0f:10:93:3a:92:22:93:2b:09:b5:03:50:98:
                    66:e3:7e:5e:39:7e:35:ad:83:0c:e5:13:8e:de:ee:
                    56:9f:0d:76:9b:6a:d7:81:3f:f4:26:6e:20:8a:c4:
                    ee:5c:35:ca:16:cf:dd:8a:16:0d:ee:b3:48:0e:cc:
                    15:3a:0d:25:15:eb:85:5c:d0:34:79:8e:cf:b5:6f:
                    15:e8:49:f8:84:5f:26:3f:0b:a8:06:a8:54:08:7b:
                    20:fb:46:d6:b7:1d:89:ae:b7:3e:47:13:85:97:f4:
                    52:ed:ec:d6:e7:b4:01:e5:f0:9a:fa:de:29:84:d7:
                    d0:b9:40:85:98:86:59:26:d6:50:40:62:67:df:0b:
                    2d:98:80:73:e0:4b:dc:6b:7b:cf:ad:60:f8:b0:5e:
                    64:b1:8a:44:64:b2:92:4f:30:86:85:81:55:f1:e3:
                    17:56:cb:24:8f:0c:c7:7b:af:c9:00:bf:55:fd:1f:
                    fb:3d
                Exponent: 65537 (0x10001)
        X509v3 extensions:
            X509v3 Basic Constraints: 
                CA:FALSE
            Netscape Comment: 
                OpenSSL Generated Certificate
            X509v3 Subject Key Identifier: 
                8A:A3:68:FA:B7:7F:0C:E5:AA:92:E4:95:7E:47:39:E7:3A:70:12:AB
            X509v3 Authority Key Identifier: 
                keyid:8A:A3:68:FA:B7:7F:0C:E5:AA:92:E4:95:7E:47:39:E7:3A:70:12:AB

    Signature Algorithm: sha256WithRSAEncryption
         62:6e:7e:64:00:9a:d9:5c:35:5a:8c:ff:43:0e:72:ad:5d:a4:
         54:70:1c:34:b7:17:89:3f:82:9c:5e:ab:2f:45:41:96:8c:b0:
         49:98:3e:9f:5b:12:b7:c1:1a:d9:bd:68:a9:b9:5f:48:60:04:
         d8:82:58:66:90:ae:3b:0d:4b:cd:ba:20:aa:5a:20:3b:7e:f5:
         27:28:c7:00:bf:2e:ce:c0:0e:71:55:e4:a1:91:4e:7a:80:ba:
         22:f9:f8:a0:10:f3:5f:91:33:81:b7:ef:b8:1e:75:b5:08:b4:
         e9:7a:33:f0:61:63:53:30:b2:bb:ae:d4:64:0f:56:3e:52:45:
         61:8b:79:33:9c:6e:71:4b:55:ed:0c:f1:b0:78:62:ab:53:39:
         6f:6b:37:64:76:ca:ba:64:61:ac:29:9f:93:c3:6a:e4:a7:db:
         a0:2e:6b:ad:02:a3:3f:9a:4f:2c:81:ef:f9:d0:38:eb:f8:2b:
         77:db:2e:c7:e1:f0:d0:a6:a9:0e:b8:7a:7b:bd:76:00:a2:64:
         39:5f:64:98:74:51:2a:87:fa:97:b5:c6:fe:a0:0e:5b:2d:4e:
         47:f3:f0:86:9e:04:51:eb:5b:e2:dd:cd:b0:15:ec:14:a9:93:
         43:cd:ab:2c:51:ca:7c:e8:99:0c:af:dc:c5:78:ab:d0:50:30:
         d8:79:17:45
-----BEGIN CERTIFICATE-----
MIIDnzCCAoegAwIBAgIEEAAAATANBgkqhkiG9w0BAQsFADBTMQswCQYDVQQGEwJD
TjEOMAwGA1UECAwFSHViZWkxEDAOBgNVBAoMB3lpaml1cGkxEDAOBgNVBAsMB0h1
YXNoYW4xEDAOBgNVBAMMB3hpYW96aGkwHhcNMTkxMjA1MDc0MTM4WhcNMjAxMjA0
MDc0MTM4WjBTMQswCQYDVQQGEwJDTjEOMAwGA1UECAwFSHViZWkxEDAOBgNVBAoM
B3lpaml1cGkxEDAOBgNVBAsMB0h1YXNoYW4xEDAOBgNVBAMMB3hpYW96aGkwggEi
MA0GCSqGSIb3DQEBAQUAA4IBDwAwggEKAoIBAQDIXhhK5Vvb1cngVM+KJ9jM6Tk8
7Gp5YtLNhom9Qpvex5YLuNY+z/dx0V7hjuo++cKt3EtNDoSa7gjKde3fTzN1FryN
Ru3d+Wjk9JWeDxCTOpIikysJtQNQmGbjfl45fjWtgwzlE47e7lafDXabateBP/Qm
biCKxO5cNcoWz92KFg3us0gOzBU6DSUV64Vc0DR5js+1bxXoSfiEXyY/C6gGqFQI
eyD7Rta3HYmutz5HE4WX9FLt7NbntAHl8Jr63imE19C5QIWYhlkm1lBAYmffCy2Y
gHPgS9xre8+tYPiwXmSxikRkspJPMIaFgVXx4xdWyySPDMd7r8kAv1X9H/s9AgMB
AAGjezB5MAkGA1UdEwQCMAAwLAYJYIZIAYb4QgENBB8WHU9wZW5TU0wgR2VuZXJh
dGVkIENlcnRpZmljYXRlMB0GA1UdDgQWBBSKo2j6t38M5aqS5JV+RznnOnASqzAf
BgNVHSMEGDAWgBSKo2j6t38M5aqS5JV+RznnOnASqzANBgkqhkiG9w0BAQsFAAOC
AQEAYm5+ZACa2Vw1Woz/Qw5yrV2kVHAcNLcXiT+CnF6rL0VBloywSZg+n1sSt8Ea
2b1oqblfSGAE2IJYZpCuOw1LzbogqlogO371JyjHAL8uzsAOcVXkoZFOeoC6Ivn4
oBDzX5EzgbfvuB51tQi06Xoz8GFjUzCyu67UZA9WPlJFYYt5M5xucUtV7QzxsHhi
q1M5b2s3ZHbKumRhrCmfk8Nq5KfboC5rrQKjP5pPLIHv+dA46/grd9sux+Hw0Kap
Drh6e712AKJkOV9kmHRRKof6l7XG/qAOWy1OR/Pwhp4EUetb4t3NsBXsFKmTQ82r
LFHKfOiZDK/cxXir0FAw2HkXRQ==
-----END CERTIFICATE-----
