Certificate:
    Data:
        Version: 3 (0x2)
        Serial Number: 268435458 (0x10000002)
        Signature Algorithm: sha256WithRSAEncryption
        Issuer: C=CN, ST=Hubei, O=yijiupi, OU=Huashan, CN=xiaozhi
        Validity
            Not Before: Dec  5 07:45:34 2019 GMT
            Not After : Dec  4 07:45:34 2020 GMT
        Subject: C=CN, ST=Hubei, O=yijiupi, OU=Huashan, CN=xiaozhi/emailAddress=huliangzhi@yijiupi.com
        Subject Public Key Info:
            Public Key Algorithm: rsaEncryption
                RSA Public-Key: (1024 bit)
                Modulus:
                    00:e8:f5:78:9a:d9:9d:f2:76:e4:4d:50:eb:86:d5:
                    f7:c1:36:b4:cf:01:ef:8f:eb:09:87:23:34:3c:55:
                    d3:d2:e1:ce:66:23:88:5d:32:ce:f1:87:c9:fa:31:
                    6e:a4:c9:98:7f:31:f2:e5:90:f6:a4:e1:75:17:0a:
                    d9:68:f0:8b:f1:c5:fb:59:0d:17:6d:b7:e7:df:ce:
                    8f:5a:88:8e:8d:86:0b:6e:c6:a9:fb:50:c5:3a:42:
                    30:ef:60:21:35:45:29:84:6e:89:e6:e9:a6:02:7d:
                    97:8d:a9:27:f0:bb:7f:64:09:76:80:7a:9d:12:e6:
                    9f:00:48:9a:01:eb:b2:52:33
                Exponent: 65537 (0x10001)
        X509v3 extensions:
            X509v3 Basic Constraints: 
                CA:FALSE
            Netscape Comment: 
                OpenSSL Generated Certificate
            X509v3 Subject Key Identifier: 
                0A:86:6E:5D:CE:82:11:4B:36:61:6F:30:0A:3F:3B:2B:52:52:BE:1E
            X509v3 Authority Key Identifier: 
                keyid:8A:A3:68:FA:B7:7F:0C:E5:AA:92:E4:95:7E:47:39:E7:3A:70:12:AB

    Signature Algorithm: sha256WithRSAEncryption
         8b:3a:5e:5b:1b:1b:f5:37:f1:11:d1:0d:08:ad:ff:2b:5c:ee:
         66:4f:2d:d2:2a:34:1d:9e:cc:79:a6:13:5e:7d:4f:12:4a:e9:
         e3:b1:72:98:37:86:2b:78:5b:1e:4e:d7:6a:c5:6e:f2:1b:8c:
         25:6b:fa:51:0f:89:b5:39:78:84:64:23:d3:b3:1f:b3:e7:65:
         8d:1c:e6:7b:4b:18:15:95:8e:15:fa:74:a9:9b:c6:e0:16:d3:
         2a:6c:ea:17:10:03:8d:0f:d5:08:6f:59:86:64:ec:0d:50:08:
         d2:e1:14:40:e1:0d:dd:50:26:68:eb:7f:dc:d1:22:8e:e3:9d:
         46:55:22:1a:23:fe:8a:0a:50:8a:e9:67:fa:d2:e2:9f:fb:0a:
         b2:43:8f:8d:9e:de:f7:fb:dc:8c:7a:c0:e8:6a:b5:dc:e0:54:
         8c:7c:b7:8e:17:dc:04:34:d9:fd:7d:85:98:a2:23:26:e4:c4:
         11:fd:71:61:f2:fa:ca:69:14:6a:7e:f1:f9:ad:c1:cc:58:1d:
         a4:3e:c2:3e:4b:bf:b9:e7:79:45:ac:f2:84:ed:b7:d9:63:f9:
         ef:81:d9:7a:88:79:e1:63:c0:17:f5:23:47:89:11:ba:22:5d:
         bc:2a:18:02:88:ad:fa:54:f0:32:5b:8d:d5:3d:f7:85:d0:9a:
         02:5c:c5:6e
-----BEGIN CERTIFICATE-----
MIIDQjCCAiqgAwIBAgIEEAAAAjANBgkqhkiG9w0BAQsFADBTMQswCQYDVQQGEwJD
TjEOMAwGA1UECAwFSHViZWkxEDAOBgNVBAoMB3lpaml1cGkxEDAOBgNVBAsMB0h1
YXNoYW4xEDAOBgNVBAMMB3hpYW96aGkwHhcNMTkxMjA1MDc0NTM0WhcNMjAxMjA0
MDc0NTM0WjB6MQswCQYDVQQGEwJDTjEOMAwGA1UECAwFSHViZWkxEDAOBgNVBAoM
B3lpaml1cGkxEDAOBgNVBAsMB0h1YXNoYW4xEDAOBgNVBAMMB3hpYW96aGkxJTAj
BgkqhkiG9w0BCQEWFmh1bGlhbmd6aGlAeWlqaXVwaS5jb20wgZ8wDQYJKoZIhvcN
AQEBBQADgY0AMIGJAoGBAOj1eJrZnfJ25E1Q64bV98E2tM8B74/rCYcjNDxV09Lh
zmYjiF0yzvGHyfoxbqTJmH8x8uWQ9qThdRcK2Wjwi/HF+1kNF22359/Oj1qIjo2G
C27GqftQxTpCMO9gITVFKYRuiebppgJ9l42pJ/C7f2QJdoB6nRLmnwBImgHrslIz
AgMBAAGjezB5MAkGA1UdEwQCMAAwLAYJYIZIAYb4QgENBB8WHU9wZW5TU0wgR2Vu
ZXJhdGVkIENlcnRpZmljYXRlMB0GA1UdDgQWBBQKhm5dzoIRSzZhbzAKPzsrUlK+
HjAfBgNVHSMEGDAWgBSKo2j6t38M5aqS5JV+RznnOnASqzANBgkqhkiG9w0BAQsF
AAOCAQEAizpeWxsb9TfxEdENCK3/K1zuZk8t0io0HZ7MeaYTXn1PEkrp47FymDeG
K3hbHk7XasVu8huMJWv6UQ+JtTl4hGQj07Mfs+dljRzme0sYFZWOFfp0qZvG4BbT
KmzqFxADjQ/VCG9ZhmTsDVAI0uEUQOEN3VAmaOt/3NEijuOdRlUiGiP+igpQiuln
+tLin/sKskOPjZ7e9/vcjHrA6Gq13OBUjHy3jhfcBDTZ/X2FmKIjJuTEEf1xYfL6
ymkUan7x+a3BzFgdpD7CPku/ued5RazyhO232WP574HZeoh54WPAF/UjR4kRuiJd
vCoYAoit+lTwMluN1T33hdCaAlzFbg==
-----END CERTIFICATE-----
